# SymbolsHelper-Confirmed: 6.0.0 amd64 armel armhf i386 powerpc
libKF6Wallet.so.6 libkf6wallet6 #MINVER#, kwallet6
* Build-Depends-Package: libkf6wallet-dev
 _ZGVZN9QMetaType21registerConverterImplI4QMapI7QString10QByteArrayE9QIterableI16QMetaAssociationEEEbSt8functionIFbPKvPvEES_S_E10unregister@Base 6.0.0
 _ZGVZN9QMetaType23registerMutableViewImplI4QMapI7QString10QByteArrayE9QIterableI16QMetaAssociationEEEbSt8functionIFbPvS9_EES_S_E10unregister@Base 6.0.0
 _ZN16QMetaAssociation15MetaAssociationI4QMapI7QString10QByteArrayEE5valueE@Base 6.0.0
 _ZN7KWallet6Wallet10folderListEv@Base 6.0.0
 _ZN7KWallet6Wallet10lockWalletEv@Base 6.0.0
 (subst)_ZN7KWallet6Wallet10openWalletERK7QString{quintptr}NS0_8OpenTypeE@Base 6.0.0
 _ZN7KWallet6Wallet10walletListEv@Base 6.0.0
 _ZN7KWallet6Wallet10writeEntryERK7QStringRK10QByteArray@Base 6.0.0
 _ZN7KWallet6Wallet10writeEntryERK7QStringRK10QByteArrayNS0_9EntryTypeE@Base 6.0.0
 _ZN7KWallet6Wallet11LocalWalletEv@Base 6.0.0
 _ZN7KWallet6Wallet11closeWalletERK7QStringb@Base 6.0.0
 _ZN7KWallet6Wallet11qt_metacallEN11QMetaObject4CallEiPPv@Base 6.0.0
 _ZN7KWallet6Wallet11qt_metacastEPKc@Base 6.0.0
 _ZN7KWallet6Wallet11removeEntryERK7QString@Base 6.0.0
 _ZN7KWallet6Wallet11renameEntryERK7QStringS3_@Base 6.0.0
 _ZN7KWallet6Wallet12createFolderERK7QString@Base 6.0.0
 _ZN7KWallet6Wallet12deleteWalletERK7QString@Base 6.0.0
 _ZN7KWallet6Wallet12readPasswordERK7QStringRS1_@Base 6.0.0
 _ZN7KWallet6Wallet12removeFolderERK7QString@Base 6.0.0
 _ZN7KWallet6Wallet12virtual_hookEiPv@Base 6.0.0
 _ZN7KWallet6Wallet12walletClosedEv@Base 6.0.0
 _ZN7KWallet6Wallet12walletOpenedEb@Base 6.0.0
 _ZN7KWallet6Wallet13NetworkWalletEv@Base 6.0.0
 _ZN7KWallet6Wallet13folderRemovedERK7QString@Base 6.0.0
 _ZN7KWallet6Wallet13folderUpdatedERK7QString@Base 6.0.0
 _ZN7KWallet6Wallet13writePasswordERK7QStringS3_@Base 6.0.0
 _ZN7KWallet6Wallet14FormDataFolderEv@Base 6.0.0
 _ZN7KWallet6Wallet14PasswordFolderEv@Base 6.0.0
 (subst)_ZN7KWallet6Wallet14changePasswordERK7QString{quintptr}@Base 6.0.0
 _ZN7KWallet6Wallet15keyDoesNotExistERK7QStringS3_S3_@Base 6.0.0
 _ZN7KWallet6Wallet16staticMetaObjectE@Base 6.0.0
 _ZN7KWallet6Wallet17folderListUpdatedEv@Base 6.0.0
 _ZN7KWallet6Wallet18folderDoesNotExistERK7QStringS3_@Base 6.0.0
 _ZN7KWallet6Wallet21disconnectApplicationERK7QStringS3_@Base 6.0.0
 (subst)_ZN7KWallet6Wallet21requestChangePasswordE{quintptr}@Base 6.0.0
 _ZN7KWallet6Wallet4syncEv@Base 6.0.0
 _ZN7KWallet6Wallet5usersERK7QString@Base 6.0.0
 _ZN7KWallet6Wallet6isOpenERK7QString@Base 6.0.0
 _ZN7KWallet6Wallet7readMapERK7QStringR4QMapIS1_S1_E@Base 6.0.0
 _ZN7KWallet6Wallet8hasEntryERK7QString@Base 6.0.0
 _ZN7KWallet6Wallet8writeMapERK7QStringRK4QMapIS1_S1_E@Base 6.0.0
 _ZN7KWallet6Wallet9entryListEv@Base 6.0.0
 _ZN7KWallet6Wallet9entryTypeERK7QString@Base 6.0.0
 _ZN7KWallet6Wallet9hasFolderERK7QString@Base 6.0.0
 _ZN7KWallet6Wallet9isEnabledEv@Base 6.0.0
 _ZN7KWallet6Wallet9readEntryERK7QStringR10QByteArray@Base 6.0.0
 _ZN7KWallet6Wallet9setFolderERK7QString@Base 6.0.0
 _ZN7KWallet6WalletC1EiRK7QString@Base 6.0.0
 _ZN7KWallet6WalletC2EiRK7QString@Base 6.0.0
 _ZN7KWallet6WalletD0Ev@Base 6.0.0
 _ZN7KWallet6WalletD1Ev@Base 6.0.0
 _ZN7KWallet6WalletD2Ev@Base 6.0.0
 _ZNK7KWallet6Wallet10metaObjectEv@Base 6.0.0
 _ZNK7KWallet6Wallet10walletNameEv@Base 6.0.0
 _ZNK7KWallet6Wallet11entriesListEPb@Base 6.0.0
 _ZNK7KWallet6Wallet12passwordListEPb@Base 6.0.0
 _ZNK7KWallet6Wallet13currentFolderEv@Base 6.0.0
 _ZNK7KWallet6Wallet6isOpenEv@Base 6.0.0
 _ZNK7KWallet6Wallet7mapListEPb@Base 6.0.0
 (optional=gccinternal)_ZSt19piecewise_construct@Base 6.0.0
 _ZTIN7KWallet6WalletE@Base 6.0.0
 _ZTIZN9QMetaType17registerConverterI4QMapI7QString10QByteArrayE9QIterableI16QMetaAssociationEN9QtPrivate34QAssociativeIterableConvertFunctorIS4_EEEEbT1_EUlPKvPvE_@Base 6.0.0
 _ZTIZN9QMetaType19registerMutableViewI4QMapI7QString10QByteArrayE9QIterableI16QMetaAssociationEN9QtPrivate38QAssociativeIterableMutableViewFunctorIS4_EEEEbT1_EUlPvSC_E_@Base 6.0.0
 _ZTSN7KWallet6WalletE@Base 6.0.0
 _ZTSZN9QMetaType17registerConverterI4QMapI7QString10QByteArrayE9QIterableI16QMetaAssociationEN9QtPrivate34QAssociativeIterableConvertFunctorIS4_EEEEbT1_EUlPKvPvE_@Base 6.0.0
 _ZTSZN9QMetaType19registerMutableViewI4QMapI7QString10QByteArrayE9QIterableI16QMetaAssociationEN9QtPrivate38QAssociativeIterableMutableViewFunctorIS4_EEEEbT1_EUlPvSC_E_@Base 6.0.0
 _ZTVN7KWallet6WalletE@Base 6.0.0
 (optional=templinst)_ZZN9QMetaType21registerConverterImplI4QMapI7QString10QByteArrayE9QIterableI16QMetaAssociationEEEbSt8functionIFbPKvPvEES_S_E10unregister@Base 6.0.0
 (optional=templinst)_ZZN9QMetaType23registerMutableViewImplI4QMapI7QString10QByteArrayE9QIterableI16QMetaAssociationEEEbSt8functionIFbPvS9_EES_S_E10unregister@Base 6.0.0
